target datalayout = "e-m:e-p270:32:32-p271:32:32-p272:64:64-i64:64-i128:128-f80:128-n8:16:32:64-S128"
target triple = "x86_64-pc-linux-gnu"

%struct.unw_proc_info_t = type { i64, i64, i64, i64, i64, i64, i32, i32, i64, i64 }

@stderr = external global ptr, align 8
@.str.2 = private unnamed_addr constant [61 x i8] c"libunwind: __unw_set_reg(cursor=%p, regNum=%d, value=0x%lx)\0A\00", align 1
@_ZZ7logAPIsE7checked = internal global i8 0, align 1
@_ZZ7logAPIsE3log = internal global i8 0, align 1
@.str.15 = private unnamed_addr constant [21 x i8] c"LIBUNWIND_PRINT_APIS\00", align 1

; Function Attrs: mustprogress nounwind uwtable
define hidden zeroext i1 @logAPIs() #0 {
  %1 = load i8, ptr @_ZZ7logAPIsE7checked, align 1, !tbaa !19, !range !21, !noundef !22
  %2 = trunc i8 %1 to i1
  br i1 %2, label %7, label %3

3:                                                ; preds = %0
  %4 = call ptr @getenv(ptr noundef @.str.15) #9
  %5 = icmp ne ptr %4, null
  %6 = zext i1 %5 to i8
  store i8 %6, ptr @_ZZ7logAPIsE3log, align 1, !tbaa !19
  store i8 1, ptr @_ZZ7logAPIsE7checked, align 1, !tbaa !19
  br label %7

7:                                                ; preds = %3, %0
  %8 = load i8, ptr @_ZZ7logAPIsE3log, align 1, !tbaa !19, !range !21, !noundef !22
  %9 = trunc i8 %8 to i1
  ret i1 %9
}

; Function Attrs: mustprogress nounwind uwtable
define hidden i32 @__unw_set_reg(ptr noundef %0, i32 noundef %1, i64 noundef %2) #0 {
  %4 = alloca i32, align 4
  %5 = alloca ptr, align 8
  %6 = alloca i32, align 4
  %7 = alloca i64, align 8
  %8 = alloca ptr, align 8
  %9 = alloca %struct.unw_proc_info_t, align 8
  %10 = alloca i32, align 4
  store ptr %0, ptr %5, align 8, !tbaa !6
  store i32 %1, ptr %6, align 4, !tbaa !37
  store i64 %2, ptr %7, align 8, !tbaa !23
  br label %11

11:                                               ; preds = %3
  %12 = call zeroext i1 @logAPIs()
  br i1 %12, label %13, label %23

13:                                               ; preds = %11
  br label %14

14:                                               ; preds = %13
  %15 = load ptr, ptr @stderr, align 8, !tbaa !13
  %16 = load ptr, ptr %5, align 8, !tbaa !6
  %17 = load i32, ptr %6, align 4, !tbaa !37
  %18 = load i64, ptr %7, align 8, !tbaa !23
  %19 = call i32 (ptr, ptr, ...) @fprintf(ptr noundef %15, ptr noundef @.str.2, ptr noundef %16, i32 noundef %17, i64 noundef %18) #9
  %20 = load ptr, ptr @stderr, align 8, !tbaa !13
  %21 = call i32 @fflush(ptr noundef %20)
  br label %22

22:                                               ; preds = %14
  br label %23

23:                                               ; preds = %22, %11
  br label %24

24:                                               ; preds = %23
  call void @llvm.lifetime.start.p0(i64 8, ptr %8) #9
  %25 = load ptr, ptr %5, align 8, !tbaa !6
  store ptr %25, ptr %8, align 8, !tbaa !15
  %26 = load ptr, ptr %8, align 8, !tbaa !15
  %27 = load i32, ptr %6, align 4, !tbaa !37
  %28 = load ptr, ptr %26, align 8, !tbaa !17
  %29 = getelementptr inbounds ptr, ptr %28, i64 2
  %30 = load ptr, ptr %29, align 8
  %31 = call noundef zeroext i1 %30(ptr noundef nonnull align 8 dereferenceable(8) %26, i32 noundef %27)
  br i1 %31, label %32, label %68

32:                                               ; preds = %24
  %33 = load ptr, ptr %8, align 8, !tbaa !15
  %34 = load i32, ptr %6, align 4, !tbaa !37
  %35 = load i64, ptr %7, align 8, !tbaa !23
  %36 = load ptr, ptr %33, align 8, !tbaa !17
  %37 = getelementptr inbounds ptr, ptr %36, i64 4
  %38 = load ptr, ptr %37, align 8
  call void %38(ptr noundef nonnull align 8 dereferenceable(8) %33, i32 noundef %34, i64 noundef %35)
  %39 = load i32, ptr %6, align 4, !tbaa !37
  %40 = icmp eq i32 %39, -1
  br i1 %40, label %41, label %67

41:                                               ; preds = %32
  call void @llvm.lifetime.start.p0(i64 72, ptr %9) #9
  %42 = load ptr, ptr %8, align 8, !tbaa !15
  %43 = load ptr, ptr %42, align 8, !tbaa !17
  %44 = getelementptr inbounds ptr, ptr %43, i64 9
  %45 = load ptr, ptr %44, align 8
  call void %45(ptr noundef nonnull align 8 dereferenceable(8) %42, ptr noundef %9)
  %46 = load ptr, ptr %8, align 8, !tbaa !15
  %47 = load ptr, ptr %46, align 8, !tbaa !17
  %48 = getelementptr inbounds ptr, ptr %47, i64 13
  %49 = load ptr, ptr %48, align 8
  call void %49(ptr noundef nonnull align 8 dereferenceable(8) %46, i1 noundef zeroext false)
  %50 = getelementptr inbounds nuw %struct.unw_proc_info_t, ptr %9, i32 0, i32 4
  %51 = load i64, ptr %50, align 8, !tbaa !40
  %52 = icmp ne i64 %51, 0
  br i1 %52, label %53, label %66

53:                                               ; preds = %41
  %54 = load ptr, ptr %8, align 8, !tbaa !15
  %55 = load ptr, ptr %8, align 8, !tbaa !15
  %56 = load ptr, ptr %55, align 8, !tbaa !17
  %57 = getelementptr inbounds ptr, ptr %56, i64 3
  %58 = load ptr, ptr %57, align 8
  %59 = call noundef i64 %58(ptr noundef nonnull align 8 dereferenceable(8) %55, i32 noundef -2)
  %60 = getelementptr inbounds nuw %struct.unw_proc_info_t, ptr %9, i32 0, i32 4
  %61 = load i64, ptr %60, align 8, !tbaa !40
  %62 = add i64 %59, %61
  %63 = load ptr, ptr %54, align 8, !tbaa !17
  %64 = getelementptr inbounds ptr, ptr %63, i64 4
  %65 = load ptr, ptr %64, align 8
  call void %65(ptr noundef nonnull align 8 dereferenceable(8) %54, i32 noundef -2, i64 noundef %62)
  br label %66

66:                                               ; preds = %53, %41
  call void @llvm.lifetime.end.p0(i64 72, ptr %9) #9
  br label %67

67:                                               ; preds = %66, %32
  store i32 0, ptr %4, align 4
  store i32 1, ptr %10, align 4
  br label %69

68:                                               ; preds = %24
  store i32 -6542, ptr %4, align 4
  store i32 1, ptr %10, align 4
  br label %69

69:                                               ; preds = %68, %67
  call void @llvm.lifetime.end.p0(i64 8, ptr %8) #9
  %70 = load i32, ptr %4, align 4
  ret i32 %70
}