; Function Attrs: mustprogress nounwind uwtable
define hidden range(i32 -6542, 1) i32 @__unw_set_reg(ptr noundef %0, i32 noundef %1, i64 noundef %2) #0 {
  %4 = alloca %struct.unw_proc_info_t, align 8
  %.b1.i = load i1, ptr @_ZZ7logAPIsE7checked, align 1
  br i1 %.b1.i, label %._crit_edge.i, label %logAPIs.exit

._crit_edge.i:                                    ; preds = %3
  %.pre.i = load i8, ptr @_ZZ7logAPIsE3log, align 1, !tbaa !6, !range !10
  %5 = trunc nuw i8 %.pre.i to i1
  br i1 %5, label %9, label %14

logAPIs.exit:                                     ; preds = %3
  %6 = tail call ptr @getenv(ptr noundef nonnull @.str.15) #15
  %7 = icmp ne ptr %6, null
  %8 = zext i1 %7 to i8
  store i8 %8, ptr @_ZZ7logAPIsE3log, align 1, !tbaa !6
  store i1 true, ptr @_ZZ7logAPIsE7checked, align 1
  br i1 %7, label %9, label %14

9:                                                ; preds = %._crit_edge.i, %logAPIs.exit
  %10 = load ptr, ptr @stderr, align 8, !tbaa !11
  %11 = tail call i32 (ptr, ptr, ...) @fprintf(ptr noundef %10, ptr noundef nonnull @.str.2, ptr noundef %0, i32 noundef %1, i64 noundef %2) #16
  %12 = load ptr, ptr @stderr, align 8, !tbaa !11
  %13 = tail call i32 @fflush(ptr noundef %12)
  br label %14

14:                                               ; preds = %._crit_edge.i, %logAPIs.exit, %9
  %15 = load ptr, ptr %0, align 8, !tbaa !14
  %16 = getelementptr inbounds nuw i8, ptr %15, i64 16
  %17 = load ptr, ptr %16, align 8
  %18 = tail call noundef zeroext i1 %17(ptr noundef nonnull align 8 dereferenceable(8) %0, i32 noundef %1) #15
  br i1 %18, label %19, label %44

19:                                               ; preds = %14
  %20 = load ptr, ptr %0, align 8, !tbaa !14
  %21 = getelementptr inbounds nuw i8, ptr %20, i64 32
  %22 = load ptr, ptr %21, align 8
  tail call void %22(ptr noundef nonnull align 8 dereferenceable(8) %0, i32 noundef %1, i64 noundef %2) #15
  %23 = icmp eq i32 %1, -1
  br i1 %23, label %24, label %44

24:                                               ; preds = %19
  call void @llvm.lifetime.start.p0(i64 72, ptr nonnull %4) #15
  %25 = load ptr, ptr %0, align 8, !tbaa !14
  %26 = getelementptr inbounds nuw i8, ptr %25, i64 72
  %27 = load ptr, ptr %26, align 8
  call void %27(ptr noundef nonnull align 8 dereferenceable(8) %0, ptr noundef nonnull %4) #15
  %28 = load ptr, ptr %0, align 8, !tbaa !14
  %29 = getelementptr inbounds nuw i8, ptr %28, i64 104
  %30 = load ptr, ptr %29, align 8
  call void %30(ptr noundef nonnull align 8 dereferenceable(8) %0, i1 noundef zeroext false) #15
  %31 = getelementptr inbounds nuw i8, ptr %4, i64 32
  %32 = load i64, ptr %31, align 8, !tbaa !20
  %.not = icmp eq i64 %32, 0
  br i1 %.not, label %43, label %33

33:                                               ; preds = %24
  %34 = load ptr, ptr %0, align 8, !tbaa !14
  %35 = getelementptr inbounds nuw i8, ptr %34, i64 24
  %36 = load ptr, ptr %35, align 8
  %37 = call noundef i64 %36(ptr noundef nonnull align 8 dereferenceable(8) %0, i32 noundef -2) #15
  %38 = load i64, ptr %31, align 8, !tbaa !20
  %39 = add i64 %38, %37
  %40 = load ptr, ptr %0, align 8, !tbaa !14
  %41 = getelementptr inbounds nuw i8, ptr %40, i64 32
  %42 = load ptr, ptr %41, align 8
  call void %42(ptr noundef nonnull align 8 dereferenceable(8) %0, i32 noundef -2, i64 noundef %39) #15
  br label %43

43:                                               ; preds = %33, %24
  call void @llvm.lifetime.end.p0(i64 72, ptr nonnull %4) #15
  br label %44

44:                                               ; preds = %14, %19, %43
  %.0 = phi i32 [ 0, %43 ], [ 0, %19 ], [ -6542, %14 ]
  ret i32 %.0
}